; Function Attrs: mustprogress uwtable
define hidden noundef zeroext i1 @_ZNK18OpenImageIO_v2_6_03pvt17TextureSystemImpl9has_errorEv(ptr noundef nonnull align 8 dereferenceable(184) %this) unnamed_addr #5 align 2 {
entry:
  %m_errormessage = getelementptr inbounds i8, ptr %this, i64 160
  %call.i = tail call noundef ptr @_ZN5boost6detail12get_tss_dataEPKv(ptr noundef nonnull %m_errormessage)
  %tobool.not = icmp eq ptr %call.i, null
  br i1 %tobool.not, label %land.end, label %land.rhs

land.rhs:                                         ; preds = %entry
  %call2 = tail call noundef i64 @_ZNKSt7__cxx1112basic_stringIcSt11char_traitsIcESaIcEE4sizeEv(ptr noundef nonnull align 8 dereferenceable(32) %call.i) #30
  %tobool3 = icmp ne i64 %call2, 0
  br label %land.end

land.end:                                         ; preds = %land.rhs, %entry
  %0 = phi i1 [ false, %entry ], [ %tobool3, %land.rhs ]
  ret i1 %0
}